; Function Attrs: mustprogress nofree norecurse nosync nounwind willreturn memory(read, inaccessiblemem: none) uwtable
define dso_local i32 @jq_yyget_lineno(ptr noundef readonly captures(none) %0) local_unnamed_addr #8 {
  %2 = getelementptr inbounds nuw i8, ptr %0, i64 40
  %3 = load ptr, ptr %2, align 8, !tbaa !22
  %.not = icmp eq ptr %3, null
  br i1 %.not, label %12, label %4

4:                                                ; preds = %1
  %5 = getelementptr inbounds nuw i8, ptr %0, i64 24
  %6 = load i64, ptr %5, align 8, !tbaa !23
  %7 = getelementptr inbounds nuw ptr, ptr %3, i64 %6
  %8 = load ptr, ptr %7, align 8, !tbaa !24
  %.not8 = icmp eq ptr %8, null
  br i1 %.not8, label %12, label %9

9:                                                ; preds = %4
  %10 = getelementptr inbounds nuw i8, ptr %8, i64 44
  %11 = load i32, ptr %10, align 4, !tbaa !67
  br label %12

12:                                               ; preds = %4, %1, %9
  %.0 = phi i32 [ %11, %9 ], [ 0, %1 ], [ 0, %4 ]
  ret i32 %.0
}